; Function Attrs: mustprogress nounwind uwtable
define internal void @_ZNK5folly10jsonschema12_GLOBAL__N_115SchemaValidator12try_validateERKNS_7dynamicE(ptr dead_on_unwind noalias writable sret(%"class.folly::exception_wrapper") align 8 %agg.result, ptr nocapture noundef nonnull readonly align 8 dereferenceable(40) %this, ptr noundef nonnull align 8 dereferenceable(40) %value) unnamed_addr #12 align 2 personality ptr @__gxx_personality_v0 {
entry:
  %agg.tmp.i.i.i = alloca %"struct.folly::jsonschema::(anonymous namespace)::SchemaError", align 8
  %vc = alloca %"struct.folly::jsonschema::(anonymous namespace)::ValidationContext", align 8
  %se = alloca %"class.folly::Optional", align 8
  call void @llvm.lifetime.start.p0(i64 56, ptr nonnull %vc) #39
  %_M_single_bucket.i.i.i = getelementptr inbounds i8, ptr %vc, i64 48
  store ptr %_M_single_bucket.i.i.i, ptr %vc, align 8, !tbaa !966
  %_M_bucket_count.i.i.i = getelementptr inbounds i8, ptr %vc, i64 8
  store i64 1, ptr %_M_bucket_count.i.i.i, align 8, !tbaa !968
  %_M_before_begin.i.i.i = getelementptr inbounds i8, ptr %vc, i64 16
  %_M_rehash_policy.i.i.i = getelementptr inbounds i8, ptr %vc, i64 32
  call void @llvm.memset.p0.i64(ptr noundef nonnull align 8 dereferenceable(16) %_M_before_begin.i.i.i, i8 0, i64 16, i1 false)
  store float 1.000000e+00, ptr %_M_rehash_policy.i.i.i, align 8, !tbaa !35
  %_M_next_resize.i.i.i.i = getelementptr inbounds i8, ptr %vc, i64 40
  call void @llvm.memset.p0.i64(ptr noundef nonnull align 8 dereferenceable(16) %_M_next_resize.i.i.i.i, i8 0, i64 16, i1 false)
  call void @llvm.lifetime.start.p0(i64 24, ptr nonnull %se) #39
  %validators_.i = getelementptr inbounds i8, ptr %this, i64 16
  %validators_.val.i = load ptr, ptr %validators_.i, align 8, !tbaa !22, !noalias !976
  %0 = getelementptr inbounds i8, ptr %this, i64 24
  %validators_.val20.i = load ptr, ptr %0, align 8, !tbaa !22, !noalias !976
  %cmp.i.not25.i = icmp eq ptr %validators_.val.i, %validators_.val20.i
  br i1 %cmp.i.not25.i, label %_ZN5folly8OptionalINS_10jsonschema12_GLOBAL__N_111SchemaErrorEED2Ev.exit23, label %for.body.lr.ph.i

for.body.lr.ph.i:                                 ; preds = %entry
  %1 = getelementptr inbounds i8, ptr %se, i64 16
  br label %for.body.i

for.cond.i:                                       ; preds = %.noexc
  %incdec.ptr.i.i = getelementptr inbounds i8, ptr %__begin2.sroa.0.026.i, i64 8
  %cmp.i.not.i = icmp eq ptr %incdec.ptr.i.i, %validators_.val20.i
  br i1 %cmp.i.not.i, label %_ZN5folly8OptionalINS_10jsonschema12_GLOBAL__N_111SchemaErrorEED2Ev.exit23, label %for.body.i

for.body.i:                                       ; preds = %for.cond.i, %for.body.lr.ph.i
  %__begin2.sroa.0.026.i = phi ptr [ %validators_.val.i, %for.body.lr.ph.i ], [ %incdec.ptr.i.i, %for.cond.i ]
  %call5.val.i = load ptr, ptr %__begin2.sroa.0.026.i, align 8, !tbaa !22
  invoke fastcc void @_ZN5folly10jsonschema12_GLOBAL__N_117ValidationContext8validateEPNS1_10IValidatorERKNS_7dynamicE(ptr dead_on_unwind noalias nonnull writable align 8 %se, ptr noundef nonnull align 8 dereferenceable(56) %vc, ptr noundef %call5.val.i, ptr noundef nonnull align 8 dereferenceable(40) %value)
          to label %.noexc unwind label %ehcleanup

.noexc:                                           ; preds = %for.body.i
  %agg.result.val.i = load i8, ptr %1, align 8, !tbaa !964, !range !137, !noundef !138
  %tobool.i.i.not.i = icmp eq i8 %agg.result.val.i, 0
  br i1 %tobool.i.i.not.i, label %for.cond.i, label %cleanup

cleanup:                                          ; preds = %.noexc
  call void @llvm.lifetime.start.p0(i64 16, ptr nonnull %agg.tmp.i.i.i), !noalias !979
  call void @_ZNSt13runtime_errorC2ERKS_(ptr noundef nonnull align 8 dereferenceable(16) %agg.tmp.i.i.i, ptr noundef nonnull align 8 dereferenceable(16) %se) #39, !noalias !979
  store ptr getelementptr inbounds inrange(-16, 24) ({ [5 x ptr] }, ptr @_ZTVN5folly10jsonschema12_GLOBAL__N_111SchemaErrorE, i64 0, i32 0, i64 2), ptr %agg.tmp.i.i.i, align 8, !tbaa !26, !noalias !979
  %call.i.i.i.i = call ptr @__cxa_allocate_exception(i64 noundef 16) #39, !noalias !982
  %call1.i.i.i.i = call ptr @__cxa_init_primary_exception(ptr noundef %call.i.i.i.i, ptr noundef nonnull @_ZTIN5folly10jsonschema12_GLOBAL__N_111SchemaErrorE, ptr noundef nonnull @_ZNSt15__exception_ptr12__dest_thunkIN5folly10jsonschema12_GLOBAL__N_111SchemaErrorEEEvPv) #39, !noalias !982
  call void @_ZNSt13runtime_errorC2ERKS_(ptr noundef nonnull align 8 dereferenceable(16) %call.i.i.i.i, ptr noundef nonnull align 8 dereferenceable(16) %agg.tmp.i.i.i) #39, !noalias !982
  store ptr getelementptr inbounds inrange(-16, 24) ({ [5 x ptr] }, ptr @_ZTVN5folly10jsonschema12_GLOBAL__N_111SchemaErrorE, i64 0, i32 0, i64 2), ptr %call.i.i.i.i, align 8, !tbaa !26, !noalias !982
  call void @_ZNSt15__exception_ptr13exception_ptrC1EPv(ptr noundef nonnull align 8 dereferenceable(8) %agg.result, ptr noundef nonnull %call.i.i.i.i) #39
  call void @_ZNSt13runtime_errorD2Ev(ptr noundef nonnull align 8 dereferenceable(16) %agg.tmp.i.i.i) #39
  call void @llvm.lifetime.end.p0(i64 16, ptr nonnull %agg.tmp.i.i.i), !noalias !979
  %.pr = load i8, ptr %1, align 8, !tbaa !964
  %tobool.not.i.i.i21 = icmp eq i8 %.pr, 0
  br i1 %tobool.not.i.i.i21, label %_ZN5folly8OptionalINS_10jsonschema12_GLOBAL__N_111SchemaErrorEED2Ev.exit23, label %if.then.i.i.i22

if.then.i.i.i22:                                  ; preds = %cleanup
  store i8 0, ptr %1, align 8, !tbaa !964
  call void @_ZNSt13runtime_errorD2Ev(ptr noundef nonnull align 8 dereferenceable(16) %se) #39
  br label %_ZN5folly8OptionalINS_10jsonschema12_GLOBAL__N_111SchemaErrorEED2Ev.exit23

_ZN5folly8OptionalINS_10jsonschema12_GLOBAL__N_111SchemaErrorEED2Ev.exit23: ; preds = %for.cond.i, %if.then.i.i.i22, %cleanup, %entry
  %tobool.i.i.not27 = phi i1 [ false, %cleanup ], [ false, %if.then.i.i.i22 ], [ true, %entry ], [ true, %for.cond.i ]
  call void @llvm.lifetime.end.p0(i64 24, ptr nonnull %se) #39
  %this.val.i.i.i.i = load ptr, ptr %_M_before_begin.i.i.i, align 8, !tbaa !974
  %tobool.not1.i.i.i.i.i = icmp eq ptr %this.val.i.i.i.i, null
  br i1 %tobool.not1.i.i.i.i.i, label %_ZNSt10_HashtableISt4pairIPKN5folly10jsonschema12_GLOBAL__N_110IValidatorEPKNS1_7dynamicEESA_SaISA_ENSt8__detail9_IdentityESt8equal_toISA_ESt4hashISA_ENSC_18_Mod_range_hashingENSC_20_Default_ranged_hashENSC_20_Prime_rehash_policyENSC_17_Hashtable_traitsILb1ELb1ELb1EEEE5clearEv.exit.i.i.i, label %while.body.i.i.i.i.i

while.body.i.i.i.i.i:                             ; preds = %_ZN5folly8OptionalINS_10jsonschema12_GLOBAL__N_111SchemaErrorEED2Ev.exit23, %while.body.i.i.i.i.i
  %__n.addr.02.i.i.i.i.i = phi ptr [ %__n.addr.0.val.i.i.i.i.i, %while.body.i.i.i.i.i ], [ %this.val.i.i.i.i, %_ZN5folly8OptionalINS_10jsonschema12_GLOBAL__N_111SchemaErrorEED2Ev.exit23 ]
  %__n.addr.0.val.i.i.i.i.i = load ptr, ptr %__n.addr.02.i.i.i.i.i, align 8, !tbaa !40
  call void @_ZdlPv(ptr noundef nonnull %__n.addr.02.i.i.i.i.i) #41
  %tobool.not.i.i.i.i.i = icmp eq ptr %__n.addr.0.val.i.i.i.i.i, null
  br i1 %tobool.not.i.i.i.i.i, label %_ZNSt10_HashtableISt4pairIPKN5folly10jsonschema12_GLOBAL__N_110IValidatorEPKNS1_7dynamicEESA_SaISA_ENSt8__detail9_IdentityESt8equal_toISA_ESt4hashISA_ENSC_18_Mod_range_hashingENSC_20_Default_ranged_hashENSC_20_Prime_rehash_policyENSC_17_Hashtable_traitsILb1ELb1ELb1EEEE5clearEv.exit.i.i.i, label %while.body.i.i.i.i.i, !llvm.loop !985

_ZNSt10_HashtableISt4pairIPKN5folly10jsonschema12_GLOBAL__N_110IValidatorEPKNS1_7dynamicEESA_SaISA_ENSt8__detail9_IdentityESt8equal_toISA_ESt4hashISA_ENSC_18_Mod_range_hashingENSC_20_Default_ranged_hashENSC_20_Prime_rehash_policyENSC_17_Hashtable_traitsILb1ELb1ELb1EEEE5clearEv.exit.i.i.i: ; preds = %while.body.i.i.i.i.i, %_ZN5folly8OptionalINS_10jsonschema12_GLOBAL__N_111SchemaErrorEED2Ev.exit23
  %2 = load ptr, ptr %vc, align 8, !tbaa !966
  %3 = load i64, ptr %_M_bucket_count.i.i.i, align 8, !tbaa !968
  %mul.i.i.i.i = shl i64 %3, 3
  call void @llvm.memset.p0.i64(ptr align 8 %2, i8 0, i64 %mul.i.i.i.i, i1 false)
  call void @llvm.memset.p0.i64(ptr noundef nonnull align 8 dereferenceable(16) %_M_before_begin.i.i.i, i8 0, i64 16, i1 false)
  %4 = load ptr, ptr %vc, align 8, !tbaa !966
  %cmp.i.i.i.i.i.i = icmp eq ptr %_M_single_bucket.i.i.i, %4
  br i1 %cmp.i.i.i.i.i.i, label %_ZN5folly10jsonschema12_GLOBAL__N_117ValidationContextD2Ev.exit, label %if.end.i.i.i.i.i

if.end.i.i.i.i.i:                                 ; preds = %_ZNSt10_HashtableISt4pairIPKN5folly10jsonschema12_GLOBAL__N_110IValidatorEPKNS1_7dynamicEESA_SaISA_ENSt8__detail9_IdentityESt8equal_toISA_ESt4hashISA_ENSC_18_Mod_range_hashingENSC_20_Default_ranged_hashENSC_20_Prime_rehash_policyENSC_17_Hashtable_traitsILb1ELb1ELb1EEEE5clearEv.exit.i.i.i
  call void @_ZdlPv(ptr noundef %4) #41
  br label %_ZN5folly10jsonschema12_GLOBAL__N_117ValidationContextD2Ev.exit

_ZN5folly10jsonschema12_GLOBAL__N_117ValidationContextD2Ev.exit: ; preds = %if.end.i.i.i.i.i, %_ZNSt10_HashtableISt4pairIPKN5folly10jsonschema12_GLOBAL__N_110IValidatorEPKNS1_7dynamicEESA_SaISA_ENSt8__detail9_IdentityESt8equal_toISA_ESt4hashISA_ENSC_18_Mod_range_hashingENSC_20_Default_ranged_hashENSC_20_Prime_rehash_policyENSC_17_Hashtable_traitsILb1ELb1ELb1EEEE5clearEv.exit.i.i.i
  call void @llvm.lifetime.end.p0(i64 56, ptr nonnull %vc) #39
  br i1 %tobool.i.i.not27, label %try.cont, label %return

ehcleanup:                                        ; preds = %for.body.i
  %5 = landingpad { ptr, i32 }
          catch ptr null
  %exn.slot.0 = extractvalue { ptr, i32 } %5, 0
  call void @llvm.lifetime.end.p0(i64 24, ptr nonnull %se) #39
  call fastcc void @_ZN5folly10jsonschema12_GLOBAL__N_117ValidationContextD2Ev(ptr noundef nonnull align 8 dereferenceable(56) %vc) #39
  call void @llvm.lifetime.end.p0(i64 56, ptr nonnull %vc) #39
  %6 = call ptr @__cxa_begin_catch(ptr %exn.slot.0) #39
  call void @_ZSt17current_exceptionv(ptr dead_on_unwind nonnull writable sret(%"class.std::__exception_ptr::exception_ptr") align 8 %agg.result) #39
  invoke void @__cxa_end_catch()
          to label %return unwind label %terminate.lpad

try.cont:                                         ; preds = %_ZN5folly10jsonschema12_GLOBAL__N_117ValidationContextD2Ev.exit
  store ptr null, ptr %agg.result, align 8, !tbaa !986
  br label %return

return:                                           ; preds = %try.cont, %ehcleanup, %_ZN5folly10jsonschema12_GLOBAL__N_117ValidationContextD2Ev.exit
  ret void

terminate.lpad:                                   ; preds = %ehcleanup
  %7 = landingpad { ptr, i32 }
          catch ptr null
  %8 = extractvalue { ptr, i32 } %7, 0
  call void @__clang_call_terminate(ptr %8) #38
  unreachable
}